; Function Attrs: nounwind uwtable
define range(i32 -40, 1) i32 @IDAGetSensNumNonlinSolvConvFails(ptr noundef %0, ptr noundef writeonly captures(none) %1) local_unnamed_addr #0 {
  %3 = icmp eq ptr %0, null
  br i1 %3, label %4, label %5

4:                                                ; preds = %2
  tail call void (ptr, i32, i32, ptr, ptr, ptr, ...) @IDAProcessError(ptr noundef null, i32 noundef -20, i32 noundef 2145, ptr noundef nonnull @__func__.IDAGetSensNumNonlinSolvConvFails, ptr noundef nonnull @.str, ptr noundef nonnull @.str.1) #9
  br label %13

5:                                                ; preds = %2
  %6 = getelementptr inbounds nuw i8, ptr %0, i64 156
  %7 = load i32, ptr %6, align 4
  %8 = icmp eq i32 %7, 0
  br i1 %8, label %9, label %10

9:                                                ; preds = %5
  tail call void (ptr, i32, i32, ptr, ptr, ptr, ...) @IDAProcessError(ptr noundef nonnull %0, i32 noundef -40, i32 noundef 2153, ptr noundef nonnull @__func__.IDAGetSensNumNonlinSolvConvFails, ptr noundef nonnull @.str, ptr noundef nonnull @.str.21) #9
  br label %13

10:                                               ; preds = %5
  %11 = getelementptr inbounds nuw i8, ptr %0, i64 1600
  %12 = load i64, ptr %11, align 8
  store i64 %12, ptr %1, align 8
  br label %13

13:                                               ; preds = %10, %9, %4
  %.0 = phi i32 [ -20, %4 ], [ -40, %9 ], [ 0, %10 ]
  ret i32 %.0
}